target datalayout = "e-m:e-p270:32:32-p271:32:32-p272:64:64-i64:64-i128:128-f80:128-n8:16:32:64-S128"
target triple = "x86_64-pc-linux-gnu"

%"class.icu_77::CalendarAstronomer" = type <{ double, double, double, double, double, %"class.icu_77::CalendarAstronomer::Equatorial", i8, [7 x i8] }>
%"class.icu_77::CalendarAstronomer::Equatorial" = type { double, double }

; Function Attrs: mustprogress uwtable
define void @_ZN6icu_7718CalendarAstronomer10clearCacheEv(ptr noundef nonnull align 8 dereferenceable(57) %0) #0 align 2 {
  %2 = alloca ptr, align 8
  %3 = alloca double, align 8
  store ptr %0, ptr %2, align 8, !tbaa !3
  %4 = load ptr, ptr %2, align 8
  call void @llvm.lifetime.start.p0(i64 8, ptr %3) #10
  %5 = call double @uprv_getNaN_77()
  store double %5, ptr %3, align 8, !tbaa !15
  %6 = load double, ptr %3, align 8, !tbaa !15
  %7 = getelementptr inbounds nuw %"class.icu_77::CalendarAstronomer", ptr %4, i32 0, i32 1
  store double %6, ptr %7, align 8, !tbaa !18
  %8 = load double, ptr %3, align 8, !tbaa !15
  %9 = getelementptr inbounds nuw %"class.icu_77::CalendarAstronomer", ptr %4, i32 0, i32 2
  store double %8, ptr %9, align 8, !tbaa !19
  %10 = load double, ptr %3, align 8, !tbaa !15
  %11 = getelementptr inbounds nuw %"class.icu_77::CalendarAstronomer", ptr %4, i32 0, i32 3
  store double %10, ptr %11, align 8, !tbaa !20
  %12 = load double, ptr %3, align 8, !tbaa !15
  %13 = getelementptr inbounds nuw %"class.icu_77::CalendarAstronomer", ptr %4, i32 0, i32 4
  store double %12, ptr %13, align 8, !tbaa !21
  %14 = getelementptr inbounds nuw %"class.icu_77::CalendarAstronomer", ptr %4, i32 0, i32 6
  store i8 0, ptr %14, align 8, !tbaa !12
  call void @llvm.lifetime.end.p0(i64 8, ptr %3) #10
  ret void
}